target datalayout = "e-m:e-p270:32:32-p271:32:32-p272:64:64-i64:64-i128:128-f80:128-n8:16:32:64-S128"
target triple = "x86_64-pc-linux-gnu"

%union.anon = type { i32 }
%struct.cdf_classid_t = type { i32, [2 x i16], [2 x i8], [6 x i8] }
%struct.cdf_stream_t = type { ptr, i64, i64, i64 }
%struct.cdf_summary_info_header_t = type { i16, i16, i16, i16, %struct.cdf_classid_t, i32 }
%struct.cdf_section_declaration_t = type { %struct.cdf_classid_t, i32 }

@cdf_bo = internal global %union.anon zeroinitializer, align 4

; Function Attrs: nounwind uwtable
define internal i64 @cdf_check_stream(ptr noundef %0, ptr noundef %1) #0 {
  %3 = alloca ptr, align 8
  %4 = alloca ptr, align 8
  store ptr %0, ptr %3, align 8, !tbaa !16
  store ptr %1, ptr %4, align 8, !tbaa !16
  %5 = load ptr, ptr %3, align 8, !tbaa !16
  %6 = getelementptr inbounds nuw %struct.cdf_stream_t, ptr %5, i32 0, i32 3
  %7 = load i64, ptr %6, align 8, !tbaa !46
  ret i64 %7
}

; Function Attrs: nounwind uwtable
define internal i32 @_cdf_tole4(i32 noundef %0) #0 {
  %2 = alloca i32, align 4
  %3 = alloca i32, align 4
  %4 = alloca ptr, align 8
  %5 = alloca ptr, align 8
  store i32 %0, ptr %2, align 4, !tbaa !12
  call void @llvm.lifetime.start.p0(i64 4, ptr %3) #13
  call void @llvm.lifetime.start.p0(i64 8, ptr %4) #13
  %6 = ptrtoint ptr %2 to i64
  %7 = inttoptr i64 %6 to ptr
  %8 = ptrtoint ptr %7 to i64
  %9 = inttoptr i64 %8 to ptr
  store ptr %9, ptr %4, align 8, !tbaa !9
  call void @llvm.lifetime.start.p0(i64 8, ptr %5) #13
  %10 = ptrtoint ptr %3 to i64
  %11 = inttoptr i64 %10 to ptr
  %12 = ptrtoint ptr %11 to i64
  %13 = inttoptr i64 %12 to ptr
  store ptr %13, ptr %5, align 8, !tbaa !9
  %14 = load ptr, ptr %4, align 8, !tbaa !9
  %15 = getelementptr inbounds i8, ptr %14, i64 3
  %16 = load i8, ptr %15, align 1, !tbaa !8
  %17 = load ptr, ptr %5, align 8, !tbaa !9
  %18 = getelementptr inbounds i8, ptr %17, i64 0
  store i8 %16, ptr %18, align 1, !tbaa !8
  %19 = load ptr, ptr %4, align 8, !tbaa !9
  %20 = getelementptr inbounds i8, ptr %19, i64 2
  %21 = load i8, ptr %20, align 1, !tbaa !8
  %22 = load ptr, ptr %5, align 8, !tbaa !9
  %23 = getelementptr inbounds i8, ptr %22, i64 1
  store i8 %21, ptr %23, align 1, !tbaa !8
  %24 = load ptr, ptr %4, align 8, !tbaa !9
  %25 = getelementptr inbounds i8, ptr %24, i64 1
  %26 = load i8, ptr %25, align 1, !tbaa !8
  %27 = load ptr, ptr %5, align 8, !tbaa !9
  %28 = getelementptr inbounds i8, ptr %27, i64 2
  store i8 %26, ptr %28, align 1, !tbaa !8
  %29 = load ptr, ptr %4, align 8, !tbaa !9
  %30 = getelementptr inbounds i8, ptr %29, i64 0
  %31 = load i8, ptr %30, align 1, !tbaa !8
  %32 = load ptr, ptr %5, align 8, !tbaa !9
  %33 = getelementptr inbounds i8, ptr %32, i64 3
  store i8 %31, ptr %33, align 1, !tbaa !8
  %34 = load i32, ptr %3, align 4, !tbaa !12
  call void @llvm.lifetime.end.p0(i64 8, ptr %5) #13
  call void @llvm.lifetime.end.p0(i64 8, ptr %4) #13
  call void @llvm.lifetime.end.p0(i64 4, ptr %3) #13
  ret i32 %34
}

; Function Attrs: nounwind uwtable
define hidden void @cdf_swap_class(ptr noundef %0) #0 {
  %2 = alloca ptr, align 8
  store ptr %0, ptr %2, align 8, !tbaa !16
  %3 = load i32, ptr @cdf_bo, align 4, !tbaa !8
  %4 = icmp eq i32 %3, 16909060
  br i1 %4, label %5, label %10

5:                                                ; preds = %1
  %6 = load ptr, ptr %2, align 8, !tbaa !16
  %7 = getelementptr inbounds nuw %struct.cdf_classid_t, ptr %6, i32 0, i32 0
  %8 = load i32, ptr %7, align 4, !tbaa !41
  %9 = call i32 @_cdf_tole4(i32 noundef %8)
  br label %14

10:                                               ; preds = %1
  %11 = load ptr, ptr %2, align 8, !tbaa !16
  %12 = getelementptr inbounds nuw %struct.cdf_classid_t, ptr %11, i32 0, i32 0
  %13 = load i32, ptr %12, align 4, !tbaa !41
  br label %14

14:                                               ; preds = %10, %5
  %15 = phi i32 [ %9, %5 ], [ %13, %10 ]
  %16 = load ptr, ptr %2, align 8, !tbaa !16
  %17 = getelementptr inbounds nuw %struct.cdf_classid_t, ptr %16, i32 0, i32 0
  store i32 %15, ptr %17, align 4, !tbaa !41
  %18 = load i32, ptr @cdf_bo, align 4, !tbaa !8
  %19 = icmp eq i32 %18, 16909060
  br i1 %19, label %20, label %27

20:                                               ; preds = %14
  %21 = load ptr, ptr %2, align 8, !tbaa !16
  %22 = getelementptr inbounds nuw %struct.cdf_classid_t, ptr %21, i32 0, i32 1
  %23 = getelementptr inbounds [2 x i16], ptr %22, i64 0, i64 0
  %24 = load i16, ptr %23, align 4, !tbaa !4
  %25 = call zeroext i16 @_cdf_tole2(i16 noundef zeroext %24)
  %26 = zext i16 %25 to i32
  br label %33

27:                                               ; preds = %14
  %28 = load ptr, ptr %2, align 8, !tbaa !16
  %29 = getelementptr inbounds nuw %struct.cdf_classid_t, ptr %28, i32 0, i32 1
  %30 = getelementptr inbounds [2 x i16], ptr %29, i64 0, i64 0
  %31 = load i16, ptr %30, align 4, !tbaa !4
  %32 = zext i16 %31 to i32
  br label %33

33:                                               ; preds = %27, %20
  %34 = phi i32 [ %26, %20 ], [ %32, %27 ]
  %35 = trunc i32 %34 to i16
  %36 = load ptr, ptr %2, align 8, !tbaa !16
  %37 = getelementptr inbounds nuw %struct.cdf_classid_t, ptr %36, i32 0, i32 1
  %38 = getelementptr inbounds [2 x i16], ptr %37, i64 0, i64 0
  store i16 %35, ptr %38, align 4, !tbaa !4
  %39 = load i32, ptr @cdf_bo, align 4, !tbaa !8
  %40 = icmp eq i32 %39, 16909060
  br i1 %40, label %41, label %48

41:                                               ; preds = %33
  %42 = load ptr, ptr %2, align 8, !tbaa !16
  %43 = getelementptr inbounds nuw %struct.cdf_classid_t, ptr %42, i32 0, i32 1
  %44 = getelementptr inbounds [2 x i16], ptr %43, i64 0, i64 1
  %45 = load i16, ptr %44, align 2, !tbaa !4
  %46 = call zeroext i16 @_cdf_tole2(i16 noundef zeroext %45)
  %47 = zext i16 %46 to i32
  br label %54

48:                                               ; preds = %33
  %49 = load ptr, ptr %2, align 8, !tbaa !16
  %50 = getelementptr inbounds nuw %struct.cdf_classid_t, ptr %49, i32 0, i32 1
  %51 = getelementptr inbounds [2 x i16], ptr %50, i64 0, i64 1
  %52 = load i16, ptr %51, align 2, !tbaa !4
  %53 = zext i16 %52 to i32
  br label %54

54:                                               ; preds = %48, %41
  %55 = phi i32 [ %47, %41 ], [ %53, %48 ]
  %56 = trunc i32 %55 to i16
  %57 = load ptr, ptr %2, align 8, !tbaa !16
  %58 = getelementptr inbounds nuw %struct.cdf_classid_t, ptr %57, i32 0, i32 1
  %59 = getelementptr inbounds [2 x i16], ptr %58, i64 0, i64 1
  store i16 %56, ptr %59, align 2, !tbaa !4
  ret void
}

; Function Attrs: nounwind uwtable
define internal zeroext i16 @_cdf_tole2(i16 noundef zeroext %0) #0 {
  %2 = alloca i16, align 2
  %3 = alloca i16, align 2
  %4 = alloca ptr, align 8
  %5 = alloca ptr, align 8
  store i16 %0, ptr %2, align 2, !tbaa !4
  call void @llvm.lifetime.start.p0(i64 2, ptr %3) #13
  call void @llvm.lifetime.start.p0(i64 8, ptr %4) #13
  %6 = ptrtoint ptr %2 to i64
  %7 = inttoptr i64 %6 to ptr
  %8 = ptrtoint ptr %7 to i64
  %9 = inttoptr i64 %8 to ptr
  store ptr %9, ptr %4, align 8, !tbaa !9
  call void @llvm.lifetime.start.p0(i64 8, ptr %5) #13
  %10 = ptrtoint ptr %3 to i64
  %11 = inttoptr i64 %10 to ptr
  %12 = ptrtoint ptr %11 to i64
  %13 = inttoptr i64 %12 to ptr
  store ptr %13, ptr %5, align 8, !tbaa !9
  %14 = load ptr, ptr %4, align 8, !tbaa !9
  %15 = getelementptr inbounds i8, ptr %14, i64 1
  %16 = load i8, ptr %15, align 1, !tbaa !8
  %17 = load ptr, ptr %5, align 8, !tbaa !9
  %18 = getelementptr inbounds i8, ptr %17, i64 0
  store i8 %16, ptr %18, align 1, !tbaa !8
  %19 = load ptr, ptr %4, align 8, !tbaa !9
  %20 = getelementptr inbounds i8, ptr %19, i64 0
  %21 = load i8, ptr %20, align 1, !tbaa !8
  %22 = load ptr, ptr %5, align 8, !tbaa !9
  %23 = getelementptr inbounds i8, ptr %22, i64 1
  store i8 %21, ptr %23, align 1, !tbaa !8
  %24 = load i16, ptr %3, align 2, !tbaa !4
  call void @llvm.lifetime.end.p0(i64 8, ptr %5) #13
  call void @llvm.lifetime.end.p0(i64 8, ptr %4) #13
  call void @llvm.lifetime.end.p0(i64 2, ptr %3) #13
  ret i16 %24
}

; Function Attrs: nounwind uwtable
define internal i32 @cdf_check_stream_offset(ptr noundef %0, ptr noundef %1, ptr noundef %2, i64 noundef %3, i32 noundef %4) #0 {
  %6 = alloca i32, align 4
  %7 = alloca ptr, align 8
  %8 = alloca ptr, align 8
  %9 = alloca ptr, align 8
  %10 = alloca i64, align 8
  %11 = alloca i32, align 4
  %12 = alloca ptr, align 8
  %13 = alloca ptr, align 8
  %14 = alloca i64, align 8
  %15 = alloca i32, align 4
  store ptr %0, ptr %7, align 8, !tbaa !16
  store ptr %1, ptr %8, align 8, !tbaa !16
  store ptr %2, ptr %9, align 8, !tbaa !16
  store i64 %3, ptr %10, align 8, !tbaa !14
  store i32 %4, ptr %11, align 4, !tbaa !12
  call void @llvm.lifetime.start.p0(i64 8, ptr %12) #13
  %16 = load ptr, ptr %7, align 8, !tbaa !16
  %17 = getelementptr inbounds nuw %struct.cdf_stream_t, ptr %16, i32 0, i32 0
  %18 = load ptr, ptr %17, align 8, !tbaa !47
  %19 = ptrtoint ptr %18 to i64
  %20 = inttoptr i64 %19 to ptr
  store ptr %20, ptr %12, align 8, !tbaa !9
  call void @llvm.lifetime.start.p0(i64 8, ptr %13) #13
  %21 = load ptr, ptr %9, align 8, !tbaa !16
  %22 = ptrtoint ptr %21 to i64
  %23 = inttoptr i64 %22 to ptr
  %24 = load i64, ptr %10, align 8, !tbaa !14
  %25 = getelementptr inbounds nuw i8, ptr %23, i64 %24
  store ptr %25, ptr %13, align 8, !tbaa !9
  call void @llvm.lifetime.start.p0(i64 8, ptr %14) #13
  %26 = load ptr, ptr %7, align 8, !tbaa !16
  %27 = load ptr, ptr %8, align 8, !tbaa !16
  %28 = call i64 @cdf_check_stream(ptr noundef %26, ptr noundef %27)
  store i64 %28, ptr %14, align 8, !tbaa !14
  %29 = load ptr, ptr %13, align 8, !tbaa !9
  %30 = load ptr, ptr %12, align 8, !tbaa !9
  %31 = icmp uge ptr %29, %30
  br i1 %31, label %32, label %45

32:                                               ; preds = %5
  %33 = load ptr, ptr %13, align 8, !tbaa !9
  %34 = load ptr, ptr %12, align 8, !tbaa !9
  %35 = ptrtoint ptr %33 to i64
  %36 = ptrtoint ptr %34 to i64
  %37 = sub i64 %35, %36
  %38 = load i64, ptr %14, align 8, !tbaa !14
  %39 = load ptr, ptr %7, align 8, !tbaa !16
  %40 = getelementptr inbounds nuw %struct.cdf_stream_t, ptr %39, i32 0, i32 1
  %41 = load i64, ptr %40, align 8, !tbaa !43
  %42 = mul i64 %38, %41
  %43 = icmp ule i64 %37, %42
  br i1 %43, label %44, label %45

44:                                               ; preds = %32
  store i32 0, ptr %6, align 4
  store i32 1, ptr %15, align 4
  br label %47

45:                                               ; preds = %32, %5
  %46 = call ptr @__errno_location() #14
  store i32 22, ptr %46, align 4, !tbaa !12
  store i32 -1, ptr %6, align 4
  store i32 1, ptr %15, align 4
  br label %47

47:                                               ; preds = %45, %44
  call void @llvm.lifetime.end.p0(i64 8, ptr %14) #13
  call void @llvm.lifetime.end.p0(i64 8, ptr %13) #13
  call void @llvm.lifetime.end.p0(i64 8, ptr %12) #13
  %48 = load i32, ptr %6, align 4
  ret i32 %48
}

; Function Attrs: nounwind uwtable
define hidden i32 @cdf_unpack_summary_info(ptr noundef %0, ptr noundef %1, ptr noundef %2, ptr noundef %3, ptr noundef %4) #0 {
  %6 = alloca i32, align 4
  %7 = alloca ptr, align 8
  %8 = alloca ptr, align 8
  %9 = alloca ptr, align 8
  %10 = alloca ptr, align 8
  %11 = alloca ptr, align 8
  %12 = alloca i64, align 8
  %13 = alloca ptr, align 8
  %14 = alloca ptr, align 8
  %15 = alloca i32, align 4
  store ptr %0, ptr %7, align 8, !tbaa !16
  store ptr %1, ptr %8, align 8, !tbaa !16
  store ptr %2, ptr %9, align 8, !tbaa !16
  store ptr %3, ptr %10, align 8, !tbaa !16
  store ptr %4, ptr %11, align 8, !tbaa !63
  call void @llvm.lifetime.start.p0(i64 8, ptr %12) #13
  call void @llvm.lifetime.start.p0(i64 8, ptr %13) #13
  %16 = load ptr, ptr %7, align 8, !tbaa !16
  %17 = getelementptr inbounds nuw %struct.cdf_stream_t, ptr %16, i32 0, i32 0
  %18 = load ptr, ptr %17, align 8, !tbaa !47
  store ptr %18, ptr %13, align 8, !tbaa !16
  call void @llvm.lifetime.start.p0(i64 8, ptr %14) #13
  %19 = load ptr, ptr %7, align 8, !tbaa !16
  %20 = getelementptr inbounds nuw %struct.cdf_stream_t, ptr %19, i32 0, i32 0
  %21 = load ptr, ptr %20, align 8, !tbaa !47
  %22 = ptrtoint ptr %21 to i64
  %23 = inttoptr i64 %22 to ptr
  %24 = getelementptr inbounds i8, ptr %23, i64 28
  %25 = ptrtoint ptr %24 to i64
  %26 = inttoptr i64 %25 to ptr
  store ptr %26, ptr %14, align 8, !tbaa !16
  %27 = load ptr, ptr %7, align 8, !tbaa !16
  %28 = load ptr, ptr %8, align 8, !tbaa !16
  %29 = load ptr, ptr %13, align 8, !tbaa !16
  %30 = call i32 @cdf_check_stream_offset(ptr noundef %27, ptr noundef %28, ptr noundef %29, i64 noundef 28, i32 noundef 1131)
  %31 = icmp eq i32 %30, -1
  br i1 %31, label %38, label %32

32:                                               ; preds = %5
  %33 = load ptr, ptr %7, align 8, !tbaa !16
  %34 = load ptr, ptr %8, align 8, !tbaa !16
  %35 = load ptr, ptr %14, align 8, !tbaa !16
  %36 = call i32 @cdf_check_stream_offset(ptr noundef %33, ptr noundef %34, ptr noundef %35, i64 noundef 20, i32 noundef 1132)
  %37 = icmp eq i32 %36, -1
  br i1 %37, label %38, label %39

38:                                               ; preds = %32, %5
  store i32 -1, ptr %6, align 4
  store i32 1, ptr %15, align 4
  br label %138

39:                                               ; preds = %32
  %40 = load i32, ptr @cdf_bo, align 4, !tbaa !8
  %41 = icmp eq i32 %40, 16909060
  br i1 %41, label %42, label %48

42:                                               ; preds = %39
  %43 = load ptr, ptr %13, align 8, !tbaa !16
  %44 = getelementptr inbounds nuw %struct.cdf_summary_info_header_t, ptr %43, i32 0, i32 0
  %45 = load i16, ptr %44, align 4, !tbaa !71
  %46 = call zeroext i16 @_cdf_tole2(i16 noundef zeroext %45)
  %47 = zext i16 %46 to i32
  br label %53

48:                                               ; preds = %39
  %49 = load ptr, ptr %13, align 8, !tbaa !16
  %50 = getelementptr inbounds nuw %struct.cdf_summary_info_header_t, ptr %49, i32 0, i32 0
  %51 = load i16, ptr %50, align 4, !tbaa !71
  %52 = zext i16 %51 to i32
  br label %53

53:                                               ; preds = %48, %42
  %54 = phi i32 [ %47, %42 ], [ %52, %48 ]
  %55 = trunc i32 %54 to i16
  %56 = load ptr, ptr %9, align 8, !tbaa !16
  %57 = getelementptr inbounds nuw %struct.cdf_summary_info_header_t, ptr %56, i32 0, i32 0
  store i16 %55, ptr %57, align 4, !tbaa !71
  %58 = load i32, ptr @cdf_bo, align 4, !tbaa !8
  %59 = icmp eq i32 %58, 16909060
  br i1 %59, label %60, label %66

60:                                               ; preds = %53
  %61 = load ptr, ptr %13, align 8, !tbaa !16
  %62 = getelementptr inbounds nuw %struct.cdf_summary_info_header_t, ptr %61, i32 0, i32 2
  %63 = load i16, ptr %62, align 4, !tbaa !73
  %64 = call zeroext i16 @_cdf_tole2(i16 noundef zeroext %63)
  %65 = zext i16 %64 to i32
  br label %71

66:                                               ; preds = %53
  %67 = load ptr, ptr %13, align 8, !tbaa !16
  %68 = getelementptr inbounds nuw %struct.cdf_summary_info_header_t, ptr %67, i32 0, i32 2
  %69 = load i16, ptr %68, align 4, !tbaa !73
  %70 = zext i16 %69 to i32
  br label %71

71:                                               ; preds = %66, %60
  %72 = phi i32 [ %65, %60 ], [ %70, %66 ]
  %73 = trunc i32 %72 to i16
  %74 = load ptr, ptr %9, align 8, !tbaa !16
  %75 = getelementptr inbounds nuw %struct.cdf_summary_info_header_t, ptr %74, i32 0, i32 2
  store i16 %73, ptr %75, align 4, !tbaa !73
  %76 = load i32, ptr @cdf_bo, align 4, !tbaa !8
  %77 = icmp eq i32 %76, 16909060
  br i1 %77, label %78, label %84

78:                                               ; preds = %71
  %79 = load ptr, ptr %13, align 8, !tbaa !16
  %80 = getelementptr inbounds nuw %struct.cdf_summary_info_header_t, ptr %79, i32 0, i32 3
  %81 = load i16, ptr %80, align 2, !tbaa !74
  %82 = call zeroext i16 @_cdf_tole2(i16 noundef zeroext %81)
  %83 = zext i16 %82 to i32
  br label %89

84:                                               ; preds = %71
  %85 = load ptr, ptr %13, align 8, !tbaa !16
  %86 = getelementptr inbounds nuw %struct.cdf_summary_info_header_t, ptr %85, i32 0, i32 3
  %87 = load i16, ptr %86, align 2, !tbaa !74
  %88 = zext i16 %87 to i32
  br label %89

89:                                               ; preds = %84, %78
  %90 = phi i32 [ %83, %78 ], [ %88, %84 ]
  %91 = trunc i32 %90 to i16
  %92 = load ptr, ptr %9, align 8, !tbaa !16
  %93 = getelementptr inbounds nuw %struct.cdf_summary_info_header_t, ptr %92, i32 0, i32 3
  store i16 %91, ptr %93, align 2, !tbaa !74
  %94 = load ptr, ptr %9, align 8, !tbaa !16
  %95 = getelementptr inbounds nuw %struct.cdf_summary_info_header_t, ptr %94, i32 0, i32 4
  %96 = load ptr, ptr %13, align 8, !tbaa !16
  %97 = getelementptr inbounds nuw %struct.cdf_summary_info_header_t, ptr %96, i32 0, i32 4
  call void @llvm.memcpy.p0.p0.i64(ptr align 4 %95, ptr align 4 %97, i64 16, i1 false), !tbaa.struct !75
  %98 = load ptr, ptr %9, align 8, !tbaa !16
  %99 = getelementptr inbounds nuw %struct.cdf_summary_info_header_t, ptr %98, i32 0, i32 4
  call void @cdf_swap_class(ptr noundef %99)
  %100 = load i32, ptr @cdf_bo, align 4, !tbaa !8
  %101 = icmp eq i32 %100, 16909060
  br i1 %101, label %102, label %107

102:                                              ; preds = %89
  %103 = load ptr, ptr %13, align 8, !tbaa !16
  %104 = getelementptr inbounds nuw %struct.cdf_summary_info_header_t, ptr %103, i32 0, i32 5
  %105 = load i32, ptr %104, align 4, !tbaa !76
  %106 = call i32 @_cdf_tole4(i32 noundef %105)
  br label %111

107:                                              ; preds = %89
  %108 = load ptr, ptr %13, align 8, !tbaa !16
  %109 = getelementptr inbounds nuw %struct.cdf_summary_info_header_t, ptr %108, i32 0, i32 5
  %110 = load i32, ptr %109, align 4, !tbaa !76
  br label %111

111:                                              ; preds = %107, %102
  %112 = phi i32 [ %106, %102 ], [ %110, %107 ]
  %113 = load ptr, ptr %9, align 8, !tbaa !16
  %114 = getelementptr inbounds nuw %struct.cdf_summary_info_header_t, ptr %113, i32 0, i32 5
  store i32 %112, ptr %114, align 4, !tbaa !76
  %115 = load ptr, ptr %11, align 8, !tbaa !63
  store i64 0, ptr %115, align 8, !tbaa !14
  store i64 0, ptr %12, align 8, !tbaa !14
  %116 = load ptr, ptr %10, align 8, !tbaa !16
  store ptr null, ptr %116, align 8, !tbaa !16
  %117 = load ptr, ptr %7, align 8, !tbaa !16
  %118 = load ptr, ptr %8, align 8, !tbaa !16
  %119 = load i32, ptr @cdf_bo, align 4, !tbaa !8
  %120 = icmp eq i32 %119, 16909060
  br i1 %120, label %121, label %126

121:                                              ; preds = %111
  %122 = load ptr, ptr %14, align 8, !tbaa !16
  %123 = getelementptr inbounds nuw %struct.cdf_section_declaration_t, ptr %122, i32 0, i32 1
  %124 = load i32, ptr %123, align 4, !tbaa !77
  %125 = call i32 @_cdf_tole4(i32 noundef %124)
  br label %130

126:                                              ; preds = %111
  %127 = load ptr, ptr %14, align 8, !tbaa !16
  %128 = getelementptr inbounds nuw %struct.cdf_section_declaration_t, ptr %127, i32 0, i32 1
  %129 = load i32, ptr %128, align 4, !tbaa !77
  br label %130

130:                                              ; preds = %126, %121
  %131 = phi i32 [ %125, %121 ], [ %129, %126 ]
  %132 = load ptr, ptr %10, align 8, !tbaa !16
  %133 = load ptr, ptr %11, align 8, !tbaa !63
  %134 = call i32 @cdf_read_property_info(ptr noundef %117, ptr noundef %118, i32 noundef %131, ptr noundef %132, ptr noundef %133, ptr noundef %12)
  %135 = icmp eq i32 %134, -1
  br i1 %135, label %136, label %137

136:                                              ; preds = %130
  store i32 -1, ptr %6, align 4
  store i32 1, ptr %15, align 4
  br label %138

137:                                              ; preds = %130
  store i32 0, ptr %6, align 4
  store i32 1, ptr %15, align 4
  br label %138

138:                                              ; preds = %137, %136, %38
  call void @llvm.lifetime.end.p0(i64 8, ptr %14) #13
  call void @llvm.lifetime.end.p0(i64 8, ptr %13) #13
  call void @llvm.lifetime.end.p0(i64 8, ptr %12) #13
  %139 = load i32, ptr %6, align 4
  ret i32 %139
}