; Function Attrs: nounwind uwtable
define hidden range(i32 -1, 1) i32 @cdf_unpack_summary_info(ptr noundef readonly captures(none) %0, ptr noundef readnone captures(none) %1, ptr noundef captures(none) %2, ptr noundef captures(none) %3, ptr noundef captures(none) %4) local_unnamed_addr #7 {
  %6 = alloca i64, align 8
  call void @llvm.lifetime.start.p0(i64 8, ptr nonnull %6) #21
  %7 = load ptr, ptr %0, align 8, !tbaa !4
  %8 = getelementptr i8, ptr %0, i64 24
  %.val.i = load i64, ptr %8, align 8, !tbaa !31
  %9 = getelementptr inbounds nuw i8, ptr %0, i64 8
  %10 = load i64, ptr %9, align 8, !tbaa !22
  %11 = mul i64 %10, %.val.i
  %.not12.i = icmp ult i64 %11, 28
  br i1 %.not12.i, label %cdf_check_stream_offset.exit.thread, label %13

cdf_check_stream_offset.exit.thread:              ; preds = %5
  %12 = tail call ptr @__errno_location() #22
  store i32 22, ptr %12, align 4, !tbaa !21
  br label %31

13:                                               ; preds = %5
  %.not12.i35 = icmp ult i64 %11, 48
  br i1 %.not12.i35, label %cdf_check_stream_offset.exit37.thread, label %cdf_check_stream_offset.exit37

cdf_check_stream_offset.exit37.thread:            ; preds = %13
  %14 = tail call ptr @__errno_location() #22
  store i32 22, ptr %14, align 4, !tbaa !21
  br label %31

cdf_check_stream_offset.exit37:                   ; preds = %13
  %15 = load i16, ptr %7, align 4, !tbaa !51
  store i16 %15, ptr %2, align 4, !tbaa !51
  %16 = getelementptr inbounds nuw i8, ptr %7, i64 4
  %17 = load i16, ptr %16, align 4, !tbaa !54
  %18 = getelementptr inbounds nuw i8, ptr %2, i64 4
  store i16 %17, ptr %18, align 4, !tbaa !54
  %19 = getelementptr inbounds nuw i8, ptr %7, i64 6
  %20 = load i16, ptr %19, align 2, !tbaa !55
  %21 = getelementptr inbounds nuw i8, ptr %2, i64 6
  store i16 %20, ptr %21, align 2, !tbaa !55
  %22 = getelementptr inbounds nuw i8, ptr %2, i64 8
  %23 = getelementptr inbounds nuw i8, ptr %7, i64 8
  tail call void @llvm.memcpy.p0.p0.i64(ptr noundef nonnull align 4 dereferenceable(16) %22, ptr noundef nonnull align 4 dereferenceable(16) %23, i64 16, i1 false), !tbaa.struct !56
  %24 = getelementptr inbounds nuw i8, ptr %7, i64 24
  %25 = load i32, ptr %24, align 4, !tbaa !57
  %26 = getelementptr inbounds nuw i8, ptr %7, i64 44
  %27 = load i32, ptr %26, align 4, !tbaa !58
  %28 = getelementptr inbounds nuw i8, ptr %2, i64 24
  store i32 %25, ptr %28, align 4, !tbaa !57
  store i64 0, ptr %4, align 8, !tbaa !47
  store i64 0, ptr %6, align 8, !tbaa !47
  store ptr null, ptr %3, align 8, !tbaa !37
  %29 = call i32 @cdf_read_property_info(ptr noundef nonnull %0, ptr poison, i32 noundef %27, ptr noundef nonnull %3, ptr noundef nonnull %4, ptr noundef nonnull %6)
  %30 = icmp eq i32 %29, -1
  %. = sext i1 %30 to i32
  br label %31

31:                                               ; preds = %cdf_check_stream_offset.exit37.thread, %cdf_check_stream_offset.exit.thread, %cdf_check_stream_offset.exit37
  %.0 = phi i32 [ %., %cdf_check_stream_offset.exit37 ], [ -1, %cdf_check_stream_offset.exit.thread ], [ -1, %cdf_check_stream_offset.exit37.thread ]
  call void @llvm.lifetime.end.p0(i64 8, ptr nonnull %6) #21
  ret i32 %.0
}